target datalayout = "e-m:e-p270:32:32-p271:32:32-p272:64:64-i64:64-i128:128-f80:128-n8:16:32:64-S128"
target triple = "x86_64-pc-linux-gnu"

%struct._lv_font_manager_recycle_t = type { %struct.lv_ll_t, i32 }
%struct.lv_ll_t = type { i32, ptr, ptr }
%struct.lv_font_recycle_t = type { %struct.lv_freetype_info_t, [32 x i8], ptr }
%struct.lv_freetype_info_t = type { ptr, i32, i32, i32 }

; Function Attrs: nounwind uwtable
define internal void @lv_font_recycle_close(ptr noundef %0, ptr noundef %1) #0 {
  %3 = alloca ptr, align 8
  %4 = alloca ptr, align 8
  store ptr %0, ptr %3, align 8, !tbaa !7
  store ptr %1, ptr %4, align 8, !tbaa !7
  br label %5

5:                                                ; preds = %2
  %6 = load ptr, ptr %3, align 8, !tbaa !7
  %7 = icmp ne ptr %6, null
  br i1 %7, label %12, label %8

8:                                                ; preds = %5
  br label %9

9:                                                ; preds = %8
  br label %10

10:                                               ; preds = %9
  br label %11

11:                                               ; preds = %10, %11
  br label %11

12:                                               ; preds = %5
  br label %13

13:                                               ; preds = %12
  br label %14

14:                                               ; preds = %13
  %15 = load ptr, ptr %4, align 8, !tbaa !7
  %16 = icmp ne ptr %15, null
  br i1 %16, label %21, label %17

17:                                               ; preds = %14
  br label %18

18:                                               ; preds = %17
  br label %19

19:                                               ; preds = %18
  br label %20

20:                                               ; preds = %19, %20
  br label %20

21:                                               ; preds = %14
  br label %22

22:                                               ; preds = %21
  br label %23

23:                                               ; preds = %22
  br label %24

24:                                               ; preds = %23
  %25 = load ptr, ptr %4, align 8, !tbaa !7
  %26 = getelementptr inbounds nuw %struct.lv_font_recycle_t, ptr %25, i32 0, i32 2
  %27 = load ptr, ptr %26, align 8, !tbaa !14
  call void @lv_freetype_font_delete(ptr noundef %27)
  %28 = load ptr, ptr %3, align 8, !tbaa !7
  %29 = getelementptr inbounds nuw %struct._lv_font_manager_recycle_t, ptr %28, i32 0, i32 0
  %30 = load ptr, ptr %4, align 8, !tbaa !7
  call void @lv_ll_remove(ptr noundef %29, ptr noundef %30)
  %31 = load ptr, ptr %4, align 8, !tbaa !7
  call void @lv_free(ptr noundef %31)
  ret void
}

; Function Attrs: nounwind uwtable
define void @lv_font_manager_recycle_delete(ptr noundef %0) #0 {
  %2 = alloca ptr, align 8
  %3 = alloca ptr, align 8
  %4 = alloca ptr, align 8
  %5 = alloca ptr, align 8
  store ptr %0, ptr %2, align 8, !tbaa !7
  br label %6

6:                                                ; preds = %1
  %7 = load ptr, ptr %2, align 8, !tbaa !7
  %8 = icmp ne ptr %7, null
  br i1 %8, label %13, label %9

9:                                                ; preds = %6
  br label %10

10:                                               ; preds = %9
  br label %11

11:                                               ; preds = %10
  br label %12

12:                                               ; preds = %11, %12
  br label %12

13:                                               ; preds = %6
  br label %14

14:                                               ; preds = %13
  call void @llvm.lifetime.start.p0(i64 8, ptr %3) #5
  %15 = load ptr, ptr %2, align 8, !tbaa !7
  %16 = getelementptr inbounds nuw %struct._lv_font_manager_recycle_t, ptr %15, i32 0, i32 0
  store ptr %16, ptr %3, align 8, !tbaa !7
  call void @llvm.lifetime.start.p0(i64 8, ptr %4) #5
  %17 = load ptr, ptr %3, align 8, !tbaa !7
  %18 = call ptr @lv_ll_get_head(ptr noundef %17)
  store ptr %18, ptr %4, align 8, !tbaa !7
  br label %19

19:                                               ; preds = %22, %14
  %20 = load ptr, ptr %4, align 8, !tbaa !7
  %21 = icmp ne ptr %20, null
  br i1 %21, label %22, label %29

22:                                               ; preds = %19
  call void @llvm.lifetime.start.p0(i64 8, ptr %5) #5
  %23 = load ptr, ptr %3, align 8, !tbaa !7
  %24 = load ptr, ptr %4, align 8, !tbaa !7
  %25 = call ptr @lv_ll_get_next(ptr noundef %23, ptr noundef %24)
  store ptr %25, ptr %5, align 8, !tbaa !7
  %26 = load ptr, ptr %2, align 8, !tbaa !7
  %27 = load ptr, ptr %4, align 8, !tbaa !7
  call void @lv_font_recycle_close(ptr noundef %26, ptr noundef %27)
  %28 = load ptr, ptr %5, align 8, !tbaa !7
  store ptr %28, ptr %4, align 8, !tbaa !7
  call void @llvm.lifetime.end.p0(i64 8, ptr %5) #5
  br label %19, !llvm.loop !12

29:                                               ; preds = %19
  %30 = load ptr, ptr %2, align 8, !tbaa !7
  call void @lv_free(ptr noundef %30)
  br label %31

31:                                               ; preds = %29
  br label %32

32:                                               ; preds = %31
  br label %33

33:                                               ; preds = %32
  call void @llvm.lifetime.end.p0(i64 8, ptr %4) #5
  call void @llvm.lifetime.end.p0(i64 8, ptr %3) #5
  ret void
}