; Function Attrs: nounwind uwtable
define void @lv_font_manager_recycle_delete(ptr noundef %0) local_unnamed_addr #0 {
  %.not = icmp eq ptr %0, null
  br i1 %.not, label %.preheader, label %2

.preheader:                                       ; preds = %1, %.preheader
  br label %.preheader

2:                                                ; preds = %1
  %3 = tail call ptr @lv_ll_get_head(ptr noundef nonnull %0) #3
  %.not1112 = icmp eq ptr %3, null
  br i1 %.not1112, label %._crit_edge, label %.lr.ph

.lr.ph:                                           ; preds = %2, %.lr.ph
  %.013 = phi ptr [ %4, %.lr.ph ], [ %3, %2 ]
  %4 = tail call ptr @lv_ll_get_next(ptr noundef nonnull %0, ptr noundef nonnull %.013) #3
  %5 = getelementptr inbounds nuw i8, ptr %.013, i64 56
  %6 = load ptr, ptr %5, align 8, !tbaa !10
  tail call void @lv_freetype_font_delete(ptr noundef %6) #3
  tail call void @lv_ll_remove(ptr noundef nonnull %0, ptr noundef nonnull %.013) #3
  tail call void @lv_free(ptr noundef nonnull %.013) #3
  %.not11 = icmp eq ptr %4, null
  br i1 %.not11, label %._crit_edge, label %.lr.ph, !llvm.loop !13

._crit_edge:                                      ; preds = %.lr.ph, %2
  tail call void @lv_free(ptr noundef nonnull %0) #3
  ret void
}